target datalayout = "e-m:e-p270:32:32-p271:32:32-p272:64:64-i64:64-i128:128-f80:128-n8:16:32:64-S128"
target triple = "x86_64-pc-linux-gnu"

@.str.28 = private unnamed_addr constant [34 x i8] c"../openssl/test/evp_extra_test2.c\00", align 1
@.str.65 = private unnamed_addr constant [8 x i8] c"default\00", align 1
@.str.76 = private unnamed_addr constant [4 x i8] c"RSA\00", align 1
@.str.201 = private unnamed_addr constant [9 x i8] c"provider\00", align 1
@.str.202 = private unnamed_addr constant [8 x i8] c"key_bio\00", align 1
@.str.203 = private unnamed_addr constant [11 x i8] c"write_pkey\00", align 1
@.str.204 = private unnamed_addr constant [88 x i8] c"PEM_write_bio_PrivateKey(key_bio, write_pkey, EVP_aes_256_cbc(), NULL, 0, NULL, \22pass\22)\00", align 1
@.str.205 = private unnamed_addr constant [5 x i8] c"pass\00", align 1
@.str.206 = private unnamed_addr constant [10 x i8] c"read_pkey\00", align 1
@.str.207 = private unnamed_addr constant [32 x i8] c"ERR_GET_REASON(ERR_get_error())\00", align 1
@.str.208 = private unnamed_addr constant [32 x i8] c"PEM_R_PROBLEMS_GETTING_PASSWORD\00", align 1

; Function Attrs: inlinehint nounwind uwtable
define internal i32 @ERR_GET_REASON(i64 noundef %0) #5 {
  %2 = alloca i32, align 4
  %3 = alloca i64, align 8
  store i64 %0, ptr %3, align 8, !tbaa !23
  %4 = load i64, ptr %3, align 8, !tbaa !23
  %5 = and i64 %4, 2147483648
  %6 = icmp ne i64 %5, 0
  br i1 %6, label %7, label %11

7:                                                ; preds = %1
  %8 = load i64, ptr %3, align 8, !tbaa !23
  %9 = and i64 %8, 2147483647
  %10 = trunc i64 %9 to i32
  store i32 %10, ptr %2, align 4
  br label %15

11:                                               ; preds = %1
  %12 = load i64, ptr %3, align 8, !tbaa !23
  %13 = and i64 %12, 8388607
  %14 = trunc i64 %13 to i32
  store i32 %14, ptr %2, align 4
  br label %15

15:                                               ; preds = %11, %7
  %16 = load i32, ptr %2, align 4
  ret i32 %16
}

; Function Attrs: nounwind uwtable
define internal i32 @test_PEM_read_bio_negative_wrong_password(i32 noundef %0) #0 {
  %2 = alloca i32, align 4
  %3 = alloca i32, align 4
  %4 = alloca ptr, align 8
  %5 = alloca ptr, align 8
  %6 = alloca ptr, align 8
  %7 = alloca ptr, align 8
  %8 = alloca ptr, align 8
  %9 = alloca ptr, align 8
  store i32 %0, ptr %2, align 4, !tbaa !11
  call void @llvm.lifetime.start.p0(i64 4, ptr %3) #7
  store i32 0, ptr %3, align 4, !tbaa !11
  call void @llvm.lifetime.start.p0(i64 8, ptr %4) #7
  %10 = call ptr @OSSL_PROVIDER_load(ptr noundef null, ptr noundef @.str.65)
  store ptr %10, ptr %4, align 8, !tbaa !27
  call void @llvm.lifetime.start.p0(i64 8, ptr %5) #7
  store ptr null, ptr %5, align 8, !tbaa !13
  call void @llvm.lifetime.start.p0(i64 8, ptr %6) #7
  %11 = call ptr (ptr, ptr, ptr, ...) @EVP_PKEY_Q_keygen(ptr noundef null, ptr noundef null, ptr noundef @.str.76, i64 noundef 1024)
  store ptr %11, ptr %6, align 8, !tbaa !13
  call void @llvm.lifetime.start.p0(i64 8, ptr %7) #7
  %12 = call ptr @BIO_s_mem()
  %13 = call ptr @BIO_new(ptr noundef %12)
  store ptr %13, ptr %7, align 8, !tbaa !31
  call void @llvm.lifetime.start.p0(i64 8, ptr %8) #7
  store ptr null, ptr %8, align 8, !tbaa !44
  call void @llvm.lifetime.start.p0(i64 8, ptr %9) #7
  store ptr null, ptr %9, align 8, !tbaa !44
  %14 = load i32, ptr %2, align 4, !tbaa !11
  %15 = icmp sgt i32 %14, 0
  br i1 %15, label %16, label %18

16:                                               ; preds = %1
  %17 = call ptr @UI_null()
  store ptr %17, ptr %9, align 8, !tbaa !44
  br label %18

18:                                               ; preds = %16, %1
  %19 = load ptr, ptr %4, align 8, !tbaa !27
  %20 = call i32 @test_ptr(ptr noundef @.str.28, i32 noundef 829, ptr noundef @.str.201, ptr noundef %19)
  %21 = icmp ne i32 %20, 0
  br i1 %21, label %23, label %22

22:                                               ; preds = %18
  br label %59

23:                                               ; preds = %18
  %24 = load ptr, ptr %7, align 8, !tbaa !31
  %25 = call i32 @test_ptr(ptr noundef @.str.28, i32 noundef 831, ptr noundef @.str.202, ptr noundef %24)
  %26 = icmp ne i32 %25, 0
  br i1 %26, label %28, label %27

27:                                               ; preds = %23
  br label %59

28:                                               ; preds = %23
  %29 = load ptr, ptr %6, align 8, !tbaa !13
  %30 = call i32 @test_ptr(ptr noundef @.str.28, i32 noundef 833, ptr noundef @.str.203, ptr noundef %29)
  %31 = icmp ne i32 %30, 0
  br i1 %31, label %33, label %32

32:                                               ; preds = %28
  br label %59

33:                                               ; preds = %28
  %34 = call ptr @UI_get_default_method()
  store ptr %34, ptr %8, align 8, !tbaa !44
  %35 = load ptr, ptr %9, align 8, !tbaa !44
  call void @UI_set_default_method(ptr noundef %35)
  %36 = load ptr, ptr %7, align 8, !tbaa !31
  %37 = load ptr, ptr %6, align 8, !tbaa !13
  %38 = call ptr @EVP_aes_256_cbc()
  %39 = call i32 @PEM_write_bio_PrivateKey(ptr noundef %36, ptr noundef %37, ptr noundef %38, ptr noundef null, i32 noundef 0, ptr noundef null, ptr noundef @.str.205)
  %40 = icmp ne i32 %39, 0
  %41 = zext i1 %40 to i32
  %42 = call i32 @test_true(ptr noundef @.str.28, i32 noundef 840, ptr noundef @.str.204, i32 noundef %41)
  %43 = icmp ne i32 %42, 0
  br i1 %43, label %45, label %44

44:                                               ; preds = %33
  br label %59

45:                                               ; preds = %33
  call void @ERR_clear_error()
  %46 = load ptr, ptr %7, align 8, !tbaa !31
  %47 = call ptr @PEM_read_bio_PrivateKey(ptr noundef %46, ptr noundef null, ptr noundef null, ptr noundef null)
  store ptr %47, ptr %5, align 8, !tbaa !13
  %48 = load ptr, ptr %5, align 8, !tbaa !13
  %49 = call i32 @test_ptr_null(ptr noundef @.str.28, i32 noundef 845, ptr noundef @.str.206, ptr noundef %48)
  %50 = icmp ne i32 %49, 0
  br i1 %50, label %52, label %51

51:                                               ; preds = %45
  br label %59

52:                                               ; preds = %45
  %53 = call i64 @ERR_get_error()
  %54 = call i32 @ERR_GET_REASON(i64 noundef %53)
  %55 = call i32 @test_int_eq(ptr noundef @.str.28, i32 noundef 848, ptr noundef @.str.207, ptr noundef @.str.208, i32 noundef %54, i32 noundef 109)
  %56 = icmp ne i32 %55, 0
  br i1 %56, label %58, label %57

57:                                               ; preds = %52
  br label %59

58:                                               ; preds = %52
  store i32 1, ptr %3, align 4, !tbaa !11
  br label %59

59:                                               ; preds = %58, %57, %51, %44, %32, %27, %22
  call void @test_openssl_errors()
  %60 = load ptr, ptr %5, align 8, !tbaa !13
  call void @EVP_PKEY_free(ptr noundef %60)
  %61 = load ptr, ptr %6, align 8, !tbaa !13
  call void @EVP_PKEY_free(ptr noundef %61)
  %62 = load ptr, ptr %7, align 8, !tbaa !31
  %63 = call i32 @BIO_free(ptr noundef %62)
  %64 = load ptr, ptr %4, align 8, !tbaa !27
  %65 = call i32 @OSSL_PROVIDER_unload(ptr noundef %64)
  %66 = load ptr, ptr %8, align 8, !tbaa !44
  call void @UI_set_default_method(ptr noundef %66)
  %67 = load i32, ptr %3, align 4, !tbaa !11
  call void @llvm.lifetime.end.p0(i64 8, ptr %9) #7
  call void @llvm.lifetime.end.p0(i64 8, ptr %8) #7
  call void @llvm.lifetime.end.p0(i64 8, ptr %7) #7
  call void @llvm.lifetime.end.p0(i64 8, ptr %6) #7
  call void @llvm.lifetime.end.p0(i64 8, ptr %5) #7
  call void @llvm.lifetime.end.p0(i64 8, ptr %4) #7
  call void @llvm.lifetime.end.p0(i64 4, ptr %3) #7
  ret i32 %67
}