; Function Attrs: nounwind uwtable
define internal range(i32 0, 2) i32 @test_PEM_read_bio_negative_wrong_password(i32 noundef %0) #0 {
  %2 = tail call ptr @OSSL_PROVIDER_load(ptr noundef null, ptr noundef nonnull @.str.65) #7
  %3 = tail call ptr (ptr, ptr, ptr, ...) @EVP_PKEY_Q_keygen(ptr noundef null, ptr noundef null, ptr noundef nonnull @.str.76, i64 noundef 1024) #7
  %4 = tail call ptr @BIO_s_mem() #7
  %5 = tail call ptr @BIO_new(ptr noundef %4) #7
  %6 = icmp sgt i32 %0, 0
  br i1 %6, label %7, label %9

7:                                                ; preds = %1
  %8 = tail call ptr @UI_null() #7
  br label %9

9:                                                ; preds = %7, %1
  %.0 = phi ptr [ %8, %7 ], [ null, %1 ]
  %10 = tail call i32 @test_ptr(ptr noundef nonnull @.str.28, i32 noundef 829, ptr noundef nonnull @.str.201, ptr noundef %2) #7
  %.not = icmp eq i32 %10, 0
  br i1 %.not, label %30, label %11

11:                                               ; preds = %9
  %12 = tail call i32 @test_ptr(ptr noundef nonnull @.str.28, i32 noundef 831, ptr noundef nonnull @.str.202, ptr noundef %5) #7
  %.not17 = icmp eq i32 %12, 0
  br i1 %.not17, label %30, label %13

13:                                               ; preds = %11
  %14 = tail call i32 @test_ptr(ptr noundef nonnull @.str.28, i32 noundef 833, ptr noundef nonnull @.str.203, ptr noundef %3) #7
  %.not18 = icmp eq i32 %14, 0
  br i1 %.not18, label %30, label %15

15:                                               ; preds = %13
  %16 = tail call ptr @UI_get_default_method() #7
  tail call void @UI_set_default_method(ptr noundef %.0) #7
  %17 = tail call ptr @EVP_aes_256_cbc() #7
  %18 = tail call i32 @PEM_write_bio_PrivateKey(ptr noundef %5, ptr noundef %3, ptr noundef %17, ptr noundef null, i32 noundef 0, ptr noundef null, ptr noundef nonnull @.str.205) #7
  %19 = icmp ne i32 %18, 0
  %20 = zext i1 %19 to i32
  %21 = tail call i32 @test_true(ptr noundef nonnull @.str.28, i32 noundef 840, ptr noundef nonnull @.str.204, i32 noundef %20) #7
  %.not19 = icmp eq i32 %21, 0
  br i1 %.not19, label %30, label %22

22:                                               ; preds = %15
  tail call void @ERR_clear_error() #7
  %23 = tail call ptr @PEM_read_bio_PrivateKey(ptr noundef %5, ptr noundef null, ptr noundef null, ptr noundef null) #7
  %24 = tail call i32 @test_ptr_null(ptr noundef nonnull @.str.28, i32 noundef 845, ptr noundef nonnull @.str.206, ptr noundef %23) #7
  %.not20 = icmp eq i32 %24, 0
  br i1 %.not20, label %30, label %25

25:                                               ; preds = %22
  %26 = tail call i64 @ERR_get_error() #7
  %27 = and i64 %26, 2147483648
  %.not.i = icmp eq i64 %27, 0
  %28 = trunc i64 %26 to i32
  %.0.v.i = select i1 %.not.i, i32 8388607, i32 2147483647
  %.0.i = and i32 %.0.v.i, %28
  %29 = tail call i32 @test_int_eq(ptr noundef nonnull @.str.28, i32 noundef 848, ptr noundef nonnull @.str.207, ptr noundef nonnull @.str.208, i32 noundef %.0.i, i32 noundef 109) #7
  %.not21 = icmp ne i32 %29, 0
  %spec.select = zext i1 %.not21 to i32
  br label %30

30:                                               ; preds = %25, %22, %15, %13, %11, %9
  %.016 = phi ptr [ %23, %22 ], [ null, %15 ], [ null, %13 ], [ null, %11 ], [ null, %9 ], [ %23, %25 ]
  %.015 = phi i32 [ 0, %22 ], [ 0, %15 ], [ 0, %13 ], [ 0, %11 ], [ 0, %9 ], [ %spec.select, %25 ]
  %.014 = phi ptr [ %16, %22 ], [ %16, %15 ], [ null, %13 ], [ null, %11 ], [ null, %9 ], [ %16, %25 ]
  tail call void @test_openssl_errors() #7
  tail call void @EVP_PKEY_free(ptr noundef %.016) #7
  tail call void @EVP_PKEY_free(ptr noundef %3) #7
  %31 = tail call i32 @BIO_free(ptr noundef %5) #7
  %32 = tail call i32 @OSSL_PROVIDER_unload(ptr noundef %2) #7
  tail call void @UI_set_default_method(ptr noundef %.014) #7
  ret i32 %.015
}